; Function Attrs: mustprogress uwtable
define noundef zeroext i1 @_ZN10OpenSubdiv6v3_6_03Osd12CpuEvaluator12EvalStencilsEPKfRKNS1_16BufferDescriptorEPfS7_PKiSA_SA_S4_ii(ptr noundef %0, ptr noundef nonnull align 4 dereferenceable(12) %1, ptr noundef %2, ptr noundef nonnull align 4 dereferenceable(12) %3, ptr noundef %4, ptr noundef %5, ptr noundef %6, ptr noundef %7, i32 noundef %8, i32 noundef %9) local_unnamed_addr #3 align 2 {
  %.not = icmp sgt i32 %9, %8
  br i1 %.not, label %11, label %17

11:                                               ; preds = %10
  %12 = getelementptr inbounds nuw i8, ptr %1, i64 4
  %13 = load i32, ptr %12, align 4
  %14 = getelementptr inbounds nuw i8, ptr %3, i64 4
  %15 = load i32, ptr %14, align 4
  %.not16 = icmp eq i32 %13, %15
  br i1 %.not16, label %16, label %17

16:                                               ; preds = %11
  tail call void @_ZN10OpenSubdiv6v3_6_03Osd15CpuEvalStencilsEPKfRKNS1_16BufferDescriptorEPfS6_PKiS9_S9_S3_ii(ptr noundef %0, ptr noundef nonnull align 4 dereferenceable(12) %1, ptr noundef %2, ptr noundef nonnull align 4 dereferenceable(12) %3, ptr noundef %4, ptr noundef %5, ptr noundef %6, ptr noundef %7, i32 noundef %8, i32 noundef %9)
  br label %17

17:                                               ; preds = %11, %10, %16
  %.0 = phi i1 [ true, %16 ], [ true, %10 ], [ false, %11 ]
  ret i1 %.0
}